; Function Attrs: mustprogress uwtable
define noundef ptr @_ZN6icu_7712NumberFormat19getAvailableLocalesEv() local_unnamed_addr #1 align 2 personality ptr @__gxx_personality_v0 {
  %1 = load atomic i32, ptr @_ZL16gServiceInitOnce acquire, align 4
  %2 = icmp eq i32 %1, 2
  br i1 %2, label %_ZN6icu_77L22getNumberFormatServiceEv.exit, label %3

3:                                                ; preds = %0
  %4 = tail call noundef signext i8 @_ZN6icu_7720umtx_initImplPreInitERNS_9UInitOnceE(ptr noundef nonnull align 4 dereferenceable(8) @_ZL16gServiceInitOnce)
  %.not.i.i = icmp eq i8 %4, 0
  br i1 %.not.i.i, label %_ZN6icu_77L22getNumberFormatServiceEv.exit, label %5

5:                                                ; preds = %3
  tail call void @ucln_i18n_registerCleanup_77(i32 noundef 23, ptr noundef nonnull @_ZL14numfmt_cleanupv)
  %6 = tail call noundef ptr @_ZN6icu_777UMemorynwEm(i64 noundef 408) #22
  %7 = icmp eq ptr %6, null
  br i1 %7, label %_ZN6icu_77L23initNumberFormatServiceEv.exit.i, label %8

8:                                                ; preds = %5
  invoke void @_ZN6icu_7722ICUNumberFormatServiceC2Ev(ptr noundef nonnull align 8 dereferenceable(408) %6)
          to label %_ZN6icu_77L23initNumberFormatServiceEv.exit.i unwind label %9

9:                                                ; preds = %8
  %10 = landingpad { ptr, i32 }
          cleanup
  tail call void @_ZN6icu_777UMemorydlEPv(ptr noundef nonnull %6) #22
  resume { ptr, i32 } %10

_ZN6icu_77L23initNumberFormatServiceEv.exit.i:    ; preds = %8, %5
  store ptr %6, ptr @_ZL8gService, align 8, !tbaa !66
  tail call void @_ZN6icu_7721umtx_initImplPostInitERNS_9UInitOnceE(ptr noundef nonnull align 4 dereferenceable(8) @_ZL16gServiceInitOnce)
  br label %_ZN6icu_77L22getNumberFormatServiceEv.exit

_ZN6icu_77L22getNumberFormatServiceEv.exit:       ; preds = %0, %3, %_ZN6icu_77L23initNumberFormatServiceEv.exit.i
  %11 = load ptr, ptr @_ZL8gService, align 8, !tbaa !66
  %.not = icmp eq ptr %11, null
  br i1 %.not, label %17, label %12

12:                                               ; preds = %_ZN6icu_77L22getNumberFormatServiceEv.exit
  %13 = load ptr, ptr %11, align 8, !tbaa !15
  %14 = getelementptr inbounds nuw i8, ptr %13, i64 176
  %15 = load ptr, ptr %14, align 8
  %16 = tail call noundef ptr %15(ptr noundef nonnull align 8 dereferenceable(408) %11)
  br label %17

17:                                               ; preds = %_ZN6icu_77L22getNumberFormatServiceEv.exit, %12
  %.0 = phi ptr [ %16, %12 ], [ null, %_ZN6icu_77L22getNumberFormatServiceEv.exit ]
  ret ptr %.0
}